target datalayout = "e-m:e-p270:32:32-p271:32:32-p272:64:64-i64:64-i128:128-f80:128-n8:16:32:64-S128"
target triple = "x86_64-pc-linux-gnu"

%struct.ident_t = type { i32, i32, i32, i32, ptr }

@1 = private unnamed_addr constant %struct.ident_t { i32 0, i32 2, i32 0, i32 22, ptr @0 }, align 8
@2 = private unnamed_addr constant %struct.ident_t { i32 0, i32 514, i32 0, i32 22, ptr @0 }, align 8
@3 = private unnamed_addr constant %struct.ident_t { i32 0, i32 66, i32 0, i32 22, ptr @0 }, align 8

; Function Attrs: noinline noreturn nounwind ssp uwtable
define linkonce_odr hidden void @__clang_call_terminate(ptr noundef %0) #14 comdat {
  %2 = call ptr @__cxa_begin_catch(ptr %0) #7
  call void @_ZSt9terminatev() #41
  unreachable
}

; Function Attrs: alwaysinline norecurse nounwind ssp uwtable
define internal void @_Z24TestMatrixMultiplicationiPPc.omp_outlined(ptr noalias noundef %0, ptr noalias noundef %1, ptr noundef nonnull align 4 dereferenceable(4) %2, ptr noundef nonnull align 4 dereferenceable(4) %3, ptr noundef nonnull align 4 dereferenceable(4) %4, ptr noundef nonnull align 4 dereferenceable(4) %5) #24 personality ptr @__gxx_personality_v0 {
  %7 = alloca ptr, align 8
  %8 = alloca ptr, align 8
  %9 = alloca ptr, align 8
  %10 = alloca ptr, align 8
  %11 = alloca ptr, align 8
  %12 = alloca ptr, align 8
  %13 = alloca i32, align 4
  %14 = alloca i32, align 4
  %15 = alloca i32, align 4
  %16 = alloca i32, align 4
  %17 = alloca i32, align 4
  %18 = alloca i32, align 4
  %19 = alloca i32, align 4
  %20 = alloca i32, align 4
  %21 = alloca i32, align 4
  %22 = alloca i32, align 4
  store ptr %0, ptr %7, align 8, !tbaa !94
  store ptr %1, ptr %8, align 8, !tbaa !94
  store ptr %2, ptr %9, align 8, !tbaa !94
  store ptr %3, ptr %10, align 8, !tbaa !94
  store ptr %4, ptr %11, align 8, !tbaa !94
  store ptr %5, ptr %12, align 8, !tbaa !94
  %23 = load ptr, ptr %9, align 8, !tbaa !94
  %24 = load ptr, ptr %10, align 8, !tbaa !94
  %25 = load ptr, ptr %11, align 8, !tbaa !94
  %26 = load ptr, ptr %12, align 8, !tbaa !94
  %27 = load ptr, ptr %7, align 8
  %28 = load i32, ptr %27, align 4, !tbaa !122
  %29 = call i32 @__kmpc_master(ptr @1, i32 %28)
  %30 = icmp ne i32 %29, 0
  br i1 %30, label %31, label %34

31:                                               ; preds = %6
  %32 = invoke i32 @omp_get_num_threads()
          to label %33 unwind label %78

33:                                               ; preds = %31
  store i32 %32, ptr %23, align 4, !tbaa !122
  call void @__kmpc_end_master(ptr @1, i32 %28)
  br label %34

34:                                               ; preds = %33, %6
  call void @llvm.lifetime.start.p0(i64 4, ptr %13) #7
  call void @llvm.lifetime.start.p0(i64 4, ptr %14) #7
  %35 = load i32, ptr %24, align 4, !tbaa !122
  store i32 %35, ptr %14, align 4, !tbaa !122
  call void @llvm.lifetime.start.p0(i64 4, ptr %15) #7
  %36 = load i32, ptr %25, align 4, !tbaa !122
  store i32 %36, ptr %15, align 4, !tbaa !122
  call void @llvm.lifetime.start.p0(i64 4, ptr %16) #7
  %37 = load i32, ptr %15, align 4, !tbaa !122
  %38 = load i32, ptr %14, align 4, !tbaa !122
  %39 = sub i32 %37, %38
  %40 = add i32 %39, 1
  %41 = udiv i32 %40, 1
  %42 = sub i32 %41, 1
  store i32 %42, ptr %16, align 4, !tbaa !122
  call void @llvm.lifetime.start.p0(i64 4, ptr %17) #7
  %43 = load i32, ptr %14, align 4, !tbaa !122
  store i32 %43, ptr %17, align 4, !tbaa !122
  call void @llvm.lifetime.end.p0(i64 4, ptr %17) #7
  %44 = load i32, ptr %14, align 4, !tbaa !122
  %45 = load i32, ptr %15, align 4, !tbaa !122
  %46 = icmp sle i32 %44, %45
  br i1 %46, label %47, label %77

47:                                               ; preds = %34
  call void @llvm.lifetime.start.p0(i64 4, ptr %18) #7
  store i32 0, ptr %18, align 4, !tbaa !122
  call void @llvm.lifetime.start.p0(i64 4, ptr %19) #7
  %48 = load i32, ptr %16, align 4, !tbaa !122
  store i32 %48, ptr %19, align 4, !tbaa !122
  call void @llvm.lifetime.start.p0(i64 4, ptr %20) #7
  store i32 1, ptr %20, align 4, !tbaa !122
  call void @llvm.lifetime.start.p0(i64 4, ptr %21) #7
  store i32 0, ptr %21, align 4, !tbaa !122
  call void @llvm.lifetime.start.p0(i64 4, ptr %22) #7
  call void @__kmpc_for_static_init_4u(ptr @2, i32 %28, i32 34, ptr %21, ptr %18, ptr %19, ptr %20, i32 1, i32 1)
  %49 = load i32, ptr %19, align 4, !tbaa !122
  %50 = load i32, ptr %16, align 4, !tbaa !122
  %51 = icmp ugt i32 %49, %50
  br i1 %51, label %52, label %54

52:                                               ; preds = %47
  %53 = load i32, ptr %16, align 4, !tbaa !122
  br label %56

54:                                               ; preds = %47
  %55 = load i32, ptr %19, align 4, !tbaa !122
  br label %56

56:                                               ; preds = %54, %52
  %57 = phi i32 [ %53, %52 ], [ %55, %54 ]
  store i32 %57, ptr %19, align 4, !tbaa !122
  %58 = load i32, ptr %18, align 4, !tbaa !122
  store i32 %58, ptr %13, align 4, !tbaa !122
  br label %59

59:                                               ; preds = %72, %56
  %60 = load i32, ptr %13, align 4, !tbaa !122
  %61 = load i32, ptr %19, align 4, !tbaa !122
  %62 = icmp ule i32 %60, %61
  br i1 %62, label %64, label %63

63:                                               ; preds = %59
  br label %75

64:                                               ; preds = %59
  %65 = load i32, ptr %14, align 4, !tbaa !122
  %66 = load i32, ptr %13, align 4, !tbaa !122
  %67 = mul i32 %66, 1
  %68 = add i32 %65, %67
  store i32 %68, ptr %22, align 4, !tbaa !122
  %69 = load i32, ptr %22, align 4, !tbaa !122
  %70 = atomicrmw add ptr %26, i32 %69 monotonic, align 4
  br label %71

71:                                               ; preds = %64
  br label %72

72:                                               ; preds = %71
  %73 = load i32, ptr %13, align 4, !tbaa !122
  %74 = add i32 %73, 1
  store i32 %74, ptr %13, align 4, !tbaa !122
  br label %59

75:                                               ; preds = %63
  br label %76

76:                                               ; preds = %75
  call void @__kmpc_for_static_fini(ptr @2, i32 %28)
  call void @llvm.lifetime.end.p0(i64 4, ptr %22) #7
  call void @llvm.lifetime.end.p0(i64 4, ptr %21) #7
  call void @llvm.lifetime.end.p0(i64 4, ptr %20) #7
  call void @llvm.lifetime.end.p0(i64 4, ptr %19) #7
  call void @llvm.lifetime.end.p0(i64 4, ptr %18) #7
  br label %77

77:                                               ; preds = %76, %34
  call void @llvm.lifetime.end.p0(i64 4, ptr %16) #7
  call void @llvm.lifetime.end.p0(i64 4, ptr %15) #7
  call void @llvm.lifetime.end.p0(i64 4, ptr %14) #7
  call void @llvm.lifetime.end.p0(i64 4, ptr %13) #7
  call void @__kmpc_barrier(ptr @3, i32 %28)
  ret void

78:                                               ; preds = %31
  %79 = landingpad { ptr, i32 }
          catch ptr null
  %80 = extractvalue { ptr, i32 } %79, 0
  call void @__clang_call_terminate(ptr %80) #41
  unreachable
}