; Function Attrs: alwaysinline norecurse nounwind ssp uwtable
define internal void @_Z24TestMatrixMultiplicationiPPc.omp_outlined(ptr noalias noundef readonly captures(none) %0, ptr noalias readnone captures(none) %1, ptr noundef nonnull writeonly align 4 captures(none) dereferenceable(4) %2, ptr noundef nonnull readonly align 4 captures(none) dereferenceable(4) %3, ptr noundef nonnull readonly align 4 captures(none) dereferenceable(4) %4, ptr noundef nonnull align 4 captures(none) dereferenceable(4) %5) #21 personality ptr @__gxx_personality_v0 {
  %7 = alloca i32, align 4
  %8 = alloca i32, align 4
  %9 = alloca i32, align 4
  %10 = alloca i32, align 4
  %11 = load i32, ptr %0, align 4, !tbaa !29
  %12 = tail call i32 @__kmpc_master(ptr nonnull @1, i32 %11)
  %.not = icmp eq i32 %12, 0
  br i1 %.not, label %15, label %13

13:                                               ; preds = %6
  %14 = tail call i32 @omp_get_num_threads()
  store i32 %14, ptr %2, align 4, !tbaa !29
  tail call void @__kmpc_end_master(ptr nonnull @1, i32 %11)
  br label %15

15:                                               ; preds = %13, %6
  %16 = load i32, ptr %3, align 4, !tbaa !29
  %17 = load i32, ptr %4, align 4, !tbaa !29
  %.not18 = icmp sgt i32 %16, %17
  br i1 %.not18, label %26, label %18

18:                                               ; preds = %15
  %19 = sub i32 %17, %16
  call void @llvm.lifetime.start.p0(i64 4, ptr nonnull %7) #22
  store i32 0, ptr %7, align 4, !tbaa !29
  call void @llvm.lifetime.start.p0(i64 4, ptr nonnull %8) #22
  store i32 %19, ptr %8, align 4, !tbaa !29
  call void @llvm.lifetime.start.p0(i64 4, ptr nonnull %9) #22
  store i32 1, ptr %9, align 4, !tbaa !29
  call void @llvm.lifetime.start.p0(i64 4, ptr nonnull %10) #22
  store i32 0, ptr %10, align 4, !tbaa !29
  call void @__kmpc_for_static_init_4u(ptr nonnull @2, i32 %11, i32 34, ptr nonnull %10, ptr nonnull %7, ptr nonnull %8, ptr nonnull %9, i32 1, i32 1)
  %20 = load i32, ptr %8, align 4, !tbaa !29
  %21 = call i32 @llvm.umin.i32(i32 %20, i32 %19)
  store i32 %21, ptr %8, align 4, !tbaa !29
  %22 = load i32, ptr %7, align 4, !tbaa !29
  %.not1920 = icmp ugt i32 %22, %21
  br i1 %.not1920, label %._crit_edge, label %.lr.ph

.lr.ph:                                           ; preds = %18, %.lr.ph
  %.021 = phi i32 [ %25, %.lr.ph ], [ %22, %18 ]
  %23 = add i32 %.021, %16
  %24 = atomicrmw add ptr %5, i32 %23 monotonic, align 4
  %25 = add i32 %.021, 1
  %.not19 = icmp ugt i32 %25, %21
  br i1 %.not19, label %._crit_edge, label %.lr.ph

._crit_edge:                                      ; preds = %.lr.ph, %18
  call void @__kmpc_for_static_fini(ptr nonnull @2, i32 %11)
  call void @llvm.lifetime.end.p0(i64 4, ptr nonnull %10) #22
  call void @llvm.lifetime.end.p0(i64 4, ptr nonnull %9) #22
  call void @llvm.lifetime.end.p0(i64 4, ptr nonnull %8) #22
  call void @llvm.lifetime.end.p0(i64 4, ptr nonnull %7) #22
  br label %26

26:                                               ; preds = %._crit_edge, %15
  call void @__kmpc_barrier(ptr nonnull @3, i32 %11)
  ret void
}